target datalayout = "e-m:e-p270:32:32-p271:32:32-p272:64:64-i64:64-i128:128-f80:128-n8:16:32:64-S128"
target triple = "x86_64-pc-linux-gnu"

@.str.5 = private unnamed_addr constant [33 x i8] c"../openssl/test/quic_wire_test.c\00", align 1
@.str.23 = private unnamed_addr constant [9 x i8] c"fail < 0\00", align 1
@.str.142 = private unnamed_addr constant [48 x i8] c"ossl_quic_wire_decode_frame_handshake_done(pkt)\00", align 1

; Function Attrs: nounwind uwtable
define internal i32 @encode_case_21_dec(ptr noundef %0, i64 noundef %1) #0 {
  %3 = alloca i32, align 4
  %4 = alloca ptr, align 8
  %5 = alloca i64, align 8
  store ptr %0, ptr %4, align 8, !tbaa !40
  store i64 %1, ptr %5, align 8, !tbaa !19
  %6 = load ptr, ptr %4, align 8, !tbaa !40
  %7 = call i32 @ossl_quic_wire_decode_frame_handshake_done(ptr noundef %6)
  %8 = load i64, ptr %5, align 8, !tbaa !19
  %9 = icmp slt i64 %8, 0
  %10 = zext i1 %9 to i32
  %11 = call i32 @test_int_eq(ptr noundef @.str.5, i32 noundef 1028, ptr noundef @.str.142, ptr noundef @.str.23, i32 noundef %7, i32 noundef %10)
  %12 = icmp ne i32 %11, 0
  br i1 %12, label %14, label %13

13:                                               ; preds = %2
  store i32 0, ptr %3, align 4
  br label %15

14:                                               ; preds = %2
  store i32 1, ptr %3, align 4
  br label %15

15:                                               ; preds = %14, %13
  %16 = load i32, ptr %3, align 4
  ret i32 %16
}