; Function Attrs: nounwind uwtable
define internal range(i32 0, 2) i32 @encode_case_21_dec(ptr noundef %0, i64 noundef %1) #0 {
  %3 = tail call i32 @ossl_quic_wire_decode_frame_handshake_done(ptr noundef %0) #4
  %.lobit = lshr i64 %1, 63
  %4 = trunc nuw nsw i64 %.lobit to i32
  %5 = tail call i32 @test_int_eq(ptr noundef nonnull @.str.5, i32 noundef 1028, ptr noundef nonnull @.str.142, ptr noundef nonnull @.str.23, i32 noundef %3, i32 noundef %4) #4
  %.not = icmp ne i32 %5, 0
  %. = zext i1 %.not to i32
  ret i32 %.
}